; Function Attrs: mustprogress nofree norecurse nosync nounwind willreturn memory(read, inaccessiblemem: none) uwtable
define i32 @_ZNK10OpenSubdiv6v3_6_03Vtr8internal5Level14getFVarOptionsEi(ptr noundef nonnull readonly align 8 captures(none) dereferenceable(480) %0, i32 noundef %1) local_unnamed_addr #13 align 2 {
  %3 = getelementptr inbounds nuw i8, ptr %0, i64 456
  %4 = sext i32 %1 to i64
  %5 = load ptr, ptr %3, align 8
  %6 = getelementptr inbounds ptr, ptr %5, i64 %4
  %7 = load ptr, ptr %6, align 8
  %8 = getelementptr inbounds nuw i8, ptr %7, i64 8
  %.sroa.0.0.copyload.i = load i32, ptr %8, align 8
  ret i32 %.sroa.0.0.copyload.i
}